target datalayout = "e-m:e-p270:32:32-p271:32:32-p272:64:64-i64:64-i128:128-f80:128-n8:16:32:64-S128"
target triple = "x86_64-unknown-linux-gnu"

%"class.cvc5::parser::Smt2TermParser" = type { ptr, ptr, ptr }

@_ZTVN4cvc56parser14Smt2TermParserE = linkonce_odr hidden unnamed_addr constant { [4 x ptr] } { [4 x ptr] [ptr null, ptr @_ZTIN4cvc56parser14Smt2TermParserE, ptr @_ZN4cvc56parser14Smt2TermParserD2Ev, ptr @_ZN4cvc56parser14Smt2TermParserD0Ev] }, comdat, align 8

; Function Attrs: mustprogress nounwind uwtable
define hidden void @_ZN4cvc56parser14Smt2TermParserC2ERNS0_9Smt2LexerERNS0_9Smt2StateE(ptr noundef nonnull align 8 dereferenceable(24) %this, ptr noundef nonnull align 8 dereferenceable(33178) %lex, ptr noundef nonnull align 8 dereferenceable(512) %state) unnamed_addr #5 align 2 {
entry:
  %this.addr = alloca ptr, align 8
  %lex.addr = alloca ptr, align 8
  %state.addr = alloca ptr, align 8
  store ptr %this, ptr %this.addr, align 8
  store ptr %lex, ptr %lex.addr, align 8
  store ptr %state, ptr %state.addr, align 8
  %this1 = load ptr, ptr %this.addr, align 8
  store ptr getelementptr inbounds ({ [4 x ptr] }, ptr @_ZTVN4cvc56parser14Smt2TermParserE, i32 0, i32 0, i32 2), ptr %this1, align 8
  %d_lex = getelementptr inbounds %"class.cvc5::parser::Smt2TermParser", ptr %this1, i32 0, i32 1
  %0 = load ptr, ptr %lex.addr, align 8
  store ptr %0, ptr %d_lex, align 8
  %d_state = getelementptr inbounds %"class.cvc5::parser::Smt2TermParser", ptr %this1, i32 0, i32 2
  %1 = load ptr, ptr %state.addr, align 8
  store ptr %1, ptr %d_state, align 8
  ret void
}